target datalayout = "e-m:e-p270:32:32-p271:32:32-p272:64:64-i64:64-i128:128-f80:128-n8:16:32:64-S128"
target triple = "x86_64-pc-linux-gnu"

%struct.sigchain_signal = type { ptr, i32, i32 }

@signals = internal global [32 x %struct.sigchain_signal] zeroinitializer, align 16
@.str = private unnamed_addr constant [11 x i8] c"sigchain.c\00", align 1
@.str.1 = private unnamed_addr constant [24 x i8] c"signal out of range: %d\00", align 1
@.str.2 = private unnamed_addr constant [27 x i8] c"size_t overflow: %lu * %lu\00", align 1

; Function Attrs: inlinehint nounwind uwtable
define internal i64 @st_mult(i64 noundef %0, i64 noundef %1) #3 {
  %3 = alloca i64, align 8
  %4 = alloca i64, align 8
  store i64 %0, ptr %3, align 8, !tbaa !16
  store i64 %1, ptr %4, align 8, !tbaa !16
  %5 = load i64, ptr %3, align 8, !tbaa !16
  %6 = icmp ne i64 %5, 0
  br i1 %6, label %7, label %15

7:                                                ; preds = %2
  %8 = load i64, ptr %4, align 8, !tbaa !16
  %9 = load i64, ptr %3, align 8, !tbaa !16
  %10 = udiv i64 -1, %9
  %11 = icmp ugt i64 %8, %10
  br i1 %11, label %12, label %15

12:                                               ; preds = %7
  %13 = load i64, ptr %3, align 8, !tbaa !16
  %14 = load i64, ptr %4, align 8, !tbaa !16
  call void (ptr, ...) @die(ptr noundef @.str.2, i64 noundef %13, i64 noundef %14) #7
  unreachable

15:                                               ; preds = %7, %2
  %16 = load i64, ptr %3, align 8, !tbaa !16
  %17 = load i64, ptr %4, align 8, !tbaa !16
  %18 = mul i64 %16, %17
  ret i64 %18
}

; Function Attrs: nounwind uwtable
define internal void @check_signum(i32 noundef %0) #0 {
  %2 = alloca i32, align 4
  store i32 %0, ptr %2, align 4, !tbaa !4
  %3 = load i32, ptr %2, align 4, !tbaa !4
  %4 = icmp slt i32 %3, 1
  br i1 %4, label %8, label %5

5:                                                ; preds = %1
  %6 = load i32, ptr %2, align 4, !tbaa !4
  %7 = icmp sge i32 %6, 32
  br i1 %7, label %8, label %10

8:                                                ; preds = %5, %1
  %9 = load i32, ptr %2, align 4, !tbaa !4
  call void (ptr, i32, ptr, ...) @BUG_fl(ptr noundef @.str, i32 noundef 16, ptr noundef @.str.1, i32 noundef %9) #7
  unreachable

10:                                               ; preds = %5
  ret void
}

; Function Attrs: nounwind uwtable
define dso_local i32 @sigchain_push(i32 noundef %0, ptr noundef %1) #0 {
  %3 = alloca i32, align 4
  %4 = alloca i32, align 4
  %5 = alloca ptr, align 8
  %6 = alloca ptr, align 8
  %7 = alloca i32, align 4
  store i32 %0, ptr %4, align 4, !tbaa !4
  store ptr %1, ptr %5, align 8, !tbaa !8
  call void @llvm.lifetime.start.p0(i64 8, ptr %6) #6
  %8 = load i32, ptr %4, align 4, !tbaa !4
  %9 = sext i32 %8 to i64
  %10 = getelementptr inbounds %struct.sigchain_signal, ptr @signals, i64 %9
  store ptr %10, ptr %6, align 8, !tbaa !10
  %11 = load i32, ptr %4, align 4, !tbaa !4
  call void @check_signum(i32 noundef %11)
  br label %12

12:                                               ; preds = %2
  %13 = load ptr, ptr %6, align 8, !tbaa !10
  %14 = getelementptr inbounds nuw %struct.sigchain_signal, ptr %13, i32 0, i32 1
  %15 = load i32, ptr %14, align 8, !tbaa !12
  %16 = add nsw i32 %15, 1
  %17 = load ptr, ptr %6, align 8, !tbaa !10
  %18 = getelementptr inbounds nuw %struct.sigchain_signal, ptr %17, i32 0, i32 2
  %19 = load i32, ptr %18, align 4, !tbaa !14
  %20 = icmp sgt i32 %16, %19
  br i1 %20, label %21, label %61

21:                                               ; preds = %12
  %22 = load ptr, ptr %6, align 8, !tbaa !10
  %23 = getelementptr inbounds nuw %struct.sigchain_signal, ptr %22, i32 0, i32 2
  %24 = load i32, ptr %23, align 4, !tbaa !14
  %25 = add nsw i32 %24, 16
  %26 = mul nsw i32 %25, 3
  %27 = sdiv i32 %26, 2
  %28 = load ptr, ptr %6, align 8, !tbaa !10
  %29 = getelementptr inbounds nuw %struct.sigchain_signal, ptr %28, i32 0, i32 1
  %30 = load i32, ptr %29, align 8, !tbaa !12
  %31 = add nsw i32 %30, 1
  %32 = icmp slt i32 %27, %31
  br i1 %32, label %33, label %40

33:                                               ; preds = %21
  %34 = load ptr, ptr %6, align 8, !tbaa !10
  %35 = getelementptr inbounds nuw %struct.sigchain_signal, ptr %34, i32 0, i32 1
  %36 = load i32, ptr %35, align 8, !tbaa !12
  %37 = add nsw i32 %36, 1
  %38 = load ptr, ptr %6, align 8, !tbaa !10
  %39 = getelementptr inbounds nuw %struct.sigchain_signal, ptr %38, i32 0, i32 2
  store i32 %37, ptr %39, align 4, !tbaa !14
  br label %49

40:                                               ; preds = %21
  %41 = load ptr, ptr %6, align 8, !tbaa !10
  %42 = getelementptr inbounds nuw %struct.sigchain_signal, ptr %41, i32 0, i32 2
  %43 = load i32, ptr %42, align 4, !tbaa !14
  %44 = add nsw i32 %43, 16
  %45 = mul nsw i32 %44, 3
  %46 = sdiv i32 %45, 2
  %47 = load ptr, ptr %6, align 8, !tbaa !10
  %48 = getelementptr inbounds nuw %struct.sigchain_signal, ptr %47, i32 0, i32 2
  store i32 %46, ptr %48, align 4, !tbaa !14
  br label %49

49:                                               ; preds = %40, %33
  %50 = load ptr, ptr %6, align 8, !tbaa !10
  %51 = getelementptr inbounds nuw %struct.sigchain_signal, ptr %50, i32 0, i32 0
  %52 = load ptr, ptr %51, align 8, !tbaa !15
  %53 = load ptr, ptr %6, align 8, !tbaa !10
  %54 = getelementptr inbounds nuw %struct.sigchain_signal, ptr %53, i32 0, i32 2
  %55 = load i32, ptr %54, align 4, !tbaa !14
  %56 = sext i32 %55 to i64
  %57 = call i64 @st_mult(i64 noundef 8, i64 noundef %56)
  %58 = call ptr @xrealloc(ptr noundef %52, i64 noundef %57)
  %59 = load ptr, ptr %6, align 8, !tbaa !10
  %60 = getelementptr inbounds nuw %struct.sigchain_signal, ptr %59, i32 0, i32 0
  store ptr %58, ptr %60, align 8, !tbaa !15
  br label %61

61:                                               ; preds = %49, %12
  br label %62

62:                                               ; preds = %61
  br label %63

63:                                               ; preds = %62
  %64 = load i32, ptr %4, align 4, !tbaa !4
  %65 = load ptr, ptr %5, align 8, !tbaa !8
  %66 = call ptr @signal(i32 noundef %64, ptr noundef %65) #6
  %67 = load ptr, ptr %6, align 8, !tbaa !10
  %68 = getelementptr inbounds nuw %struct.sigchain_signal, ptr %67, i32 0, i32 0
  %69 = load ptr, ptr %68, align 8, !tbaa !15
  %70 = load ptr, ptr %6, align 8, !tbaa !10
  %71 = getelementptr inbounds nuw %struct.sigchain_signal, ptr %70, i32 0, i32 1
  %72 = load i32, ptr %71, align 8, !tbaa !12
  %73 = sext i32 %72 to i64
  %74 = getelementptr inbounds ptr, ptr %69, i64 %73
  store ptr %66, ptr %74, align 8, !tbaa !8
  %75 = load ptr, ptr %6, align 8, !tbaa !10
  %76 = getelementptr inbounds nuw %struct.sigchain_signal, ptr %75, i32 0, i32 0
  %77 = load ptr, ptr %76, align 8, !tbaa !15
  %78 = load ptr, ptr %6, align 8, !tbaa !10
  %79 = getelementptr inbounds nuw %struct.sigchain_signal, ptr %78, i32 0, i32 1
  %80 = load i32, ptr %79, align 8, !tbaa !12
  %81 = sext i32 %80 to i64
  %82 = getelementptr inbounds ptr, ptr %77, i64 %81
  %83 = load ptr, ptr %82, align 8, !tbaa !8
  %84 = icmp eq ptr %83, inttoptr (i64 -1 to ptr)
  br i1 %84, label %85, label %86

85:                                               ; preds = %63
  store i32 -1, ptr %3, align 4
  store i32 1, ptr %7, align 4
  br label %91

86:                                               ; preds = %63
  %87 = load ptr, ptr %6, align 8, !tbaa !10
  %88 = getelementptr inbounds nuw %struct.sigchain_signal, ptr %87, i32 0, i32 1
  %89 = load i32, ptr %88, align 8, !tbaa !12
  %90 = add nsw i32 %89, 1
  store i32 %90, ptr %88, align 8, !tbaa !12
  store i32 0, ptr %3, align 4
  store i32 1, ptr %7, align 4
  br label %91

91:                                               ; preds = %86, %85
  call void @llvm.lifetime.end.p0(i64 8, ptr %6) #6
  %92 = load i32, ptr %3, align 4
  ret i32 %92
}