; Function Attrs: nounwind uwtable
define dso_local range(i32 -1, 1) i32 @sigchain_push(i32 noundef %0, ptr noundef %1) local_unnamed_addr #0 {
  %3 = sext i32 %0 to i64
  %4 = getelementptr inbounds %struct.sigchain_signal, ptr @signals, i64 %3
  %5 = add i32 %0, -32
  %or.cond.i = icmp ult i32 %5, -31
  br i1 %or.cond.i, label %6, label %check_signum.exit

6:                                                ; preds = %2
  tail call void (ptr, i32, ptr, ...) @BUG_fl(ptr noundef nonnull @.str, i32 noundef 16, ptr noundef nonnull @.str.1, i32 noundef %0) #4
  unreachable

check_signum.exit:                                ; preds = %2
  %7 = getelementptr inbounds nuw i8, ptr %4, i64 8
  %8 = load i32, ptr %7, align 8, !tbaa !4
  %9 = getelementptr inbounds nuw i8, ptr %4, i64 12
  %10 = load i32, ptr %9, align 4, !tbaa !10
  %.not = icmp slt i32 %8, %10
  br i1 %.not, label %22, label %11

11:                                               ; preds = %check_signum.exit
  %12 = add nsw i32 %8, 1
  %13 = mul i32 %10, 3
  %14 = add i32 %13, 48
  %15 = sdiv i32 %14, 2
  %.not23 = icmp sgt i32 %15, %8
  %. = select i1 %.not23, i32 %15, i32 %12
  store i32 %., ptr %9, align 4, !tbaa !10
  %16 = sext i32 %. to i64
  %17 = icmp slt i32 %., 0
  br i1 %17, label %18, label %st_mult.exit

18:                                               ; preds = %11
  tail call void (ptr, ...) @die(ptr noundef nonnull @.str.2, i64 noundef 8, i64 noundef range(i64 -2147483648, 2147483648) %16) #4
  unreachable

st_mult.exit:                                     ; preds = %11
  %19 = load ptr, ptr %4, align 16, !tbaa !11
  %20 = shl nuw nsw i64 %16, 3
  %21 = tail call ptr @xrealloc(ptr noundef %19, i64 noundef %20) #5
  store ptr %21, ptr %4, align 16, !tbaa !11
  br label %22

22:                                               ; preds = %st_mult.exit, %check_signum.exit
  %23 = tail call ptr @signal(i32 noundef %0, ptr noundef %1) #5
  %24 = load ptr, ptr %4, align 16, !tbaa !11
  %25 = load i32, ptr %7, align 8, !tbaa !4
  %26 = sext i32 %25 to i64
  %27 = getelementptr inbounds ptr, ptr %24, i64 %26
  store ptr %23, ptr %27, align 8, !tbaa !12
  %28 = icmp eq ptr %23, inttoptr (i64 -1 to ptr)
  br i1 %28, label %31, label %29

29:                                               ; preds = %22
  %30 = add nsw i32 %25, 1
  store i32 %30, ptr %7, align 8, !tbaa !4
  br label %31

31:                                               ; preds = %22, %29
  %.0 = phi i32 [ 0, %29 ], [ -1, %22 ]
  ret i32 %.0
}